; Function Attrs: nounwind uwtable
define ptr @lv_subject_add_observer_obj(ptr noundef %0, ptr noundef %1, ptr noundef %2, ptr noundef %3) local_unnamed_addr #0 {
  %.not = icmp eq ptr %0, null
  br i1 %.not, label %.preheader, label %5

.preheader:                                       ; preds = %4, %.preheader
  br label %.preheader

5:                                                ; preds = %4
  %6 = getelementptr inbounds nuw i8, ptr %0, i64 48
  %7 = load i32, ptr %6, align 8
  %8 = and i32 %7, 15
  %9 = icmp eq i32 %8, 0
  br i1 %9, label %24, label %10

10:                                               ; preds = %5
  %11 = tail call ptr @lv_ll_ins_tail(ptr noundef nonnull %0) #9
  %.not28 = icmp eq ptr %11, null
  br i1 %.not28, label %.preheader31, label %12

.preheader31:                                     ; preds = %10, %.preheader31
  br label %.preheader31

12:                                               ; preds = %10
  tail call void @lv_memset(ptr noundef nonnull %11, i8 noundef zeroext 0, i64 noundef 40) #9
  store ptr %0, ptr %11, align 8, !tbaa !9
  %13 = getelementptr inbounds nuw i8, ptr %11, i64 8
  store ptr %1, ptr %13, align 8, !tbaa !12
  %14 = getelementptr inbounds nuw i8, ptr %11, i64 24
  store ptr %3, ptr %14, align 8, !tbaa !13
  %15 = getelementptr inbounds nuw i8, ptr %11, i64 16
  store ptr %2, ptr %15, align 8, !tbaa !14
  %16 = getelementptr inbounds nuw i8, ptr %11, i64 32
  %17 = load i8, ptr %16, align 8
  %18 = or i8 %17, 4
  store i8 %18, ptr %16, align 8
  %.not29 = icmp eq ptr %2, null
  br i1 %.not29, label %21, label %19

19:                                               ; preds = %12
  %20 = tail call ptr @lv_obj_add_event_cb(ptr noundef nonnull %2, ptr noundef nonnull @unsubscribe_on_delete_cb, i32 noundef 41, ptr noundef nonnull %11) #9
  %.pre = load ptr, ptr %13, align 8, !tbaa !12
  br label %21

21:                                               ; preds = %19, %12
  %22 = phi ptr [ %.pre, %19 ], [ %1, %12 ]
  %.not30 = icmp eq ptr %22, null
  br i1 %.not30, label %24, label %23

23:                                               ; preds = %21
  tail call void %22(ptr noundef nonnull %11, ptr noundef nonnull %0) #9
  br label %24

24:                                               ; preds = %23, %21, %5
  %.0 = phi ptr [ null, %5 ], [ %11, %21 ], [ %11, %23 ]
  ret ptr %.0
}